#include <math.h>
#include <stdio.h>
#include <stdlib.h>
#include <string.h>


int main()
{
    int operate(int n);
    int n;
    
    scanf("%d", &n);
    while(n != 1)
    n = operate(n);
    
    printf("End");
    
    return 0;
    
}

int operate(int n)
{
    int nn;
    if(n % 2 == 0)
    {
         nn = n / 2;
         printf("%d/2=%d\n", n, nn);
    }
    else
    {
         nn = 3 * n + 1;
         printf("%d*3+1=%d\n", n, nn);
    }
    return nn;
}


	
